; Function Attrs: mustprogress uwtable
define void @_ZN7rocksdb23CFOptionsAsConfigurableERKNS_19ColumnFamilyOptionsEPKSt13unordered_mapINSt7__cxx1112basic_stringIcSt11char_traitsIcESaIcEEES9_St4hashIS9_ESt8equal_toIS9_ESaISt4pairIKS9_S9_EEE(ptr noalias nocapture writeonly sret(%"class.std::unique_ptr") align 8 %agg.result, ptr noundef nonnull align 8 dereferenceable(820) %opts, ptr noundef %opt_map) local_unnamed_addr #2 personality ptr @__gxx_personality_v0 {
entry:
  %call = tail call noalias noundef nonnull dereferenceable(1712) ptr @_Znwm(i64 noundef 1712) #30
  invoke void @_ZN7rocksdb21ConfigurableCFOptionsC2ERKNS_19ColumnFamilyOptionsEPKSt13unordered_mapINSt7__cxx1112basic_stringIcSt11char_traitsIcESaIcEEESA_St4hashISA_ESt8equal_toISA_ESaISt4pairIKSA_SA_EEE(ptr noundef nonnull align 8 dereferenceable(1712) %call, ptr noundef nonnull align 8 dereferenceable(820) %opts, ptr noundef %opt_map)
          to label %invoke.cont unwind label %lpad

invoke.cont:                                      ; preds = %entry
  store ptr %call, ptr %agg.result, align 8
  ret void

lpad:                                             ; preds = %entry
  %0 = landingpad { ptr, i32 }
          cleanup
  tail call void @_ZdlPv(ptr noundef nonnull %call) #29
  resume { ptr, i32 } %0
}